target datalayout = "e-m:e-p270:32:32-p271:32:32-p272:64:64-i64:64-i128:128-f80:128-n8:16:32:64-S128"
target triple = "x86_64-pc-linux-gnu"

; Function Attrs: mustprogress uwtable
define internal noundef zeroext i1 @_ZN7testing8internalL9ParseFlagEPKcS2_Pb(ptr noundef %0, ptr noundef %1, ptr noundef %2) #4 {
  %4 = alloca i1, align 1
  %5 = alloca ptr, align 8
  %6 = alloca ptr, align 8
  %7 = alloca ptr, align 8
  %8 = alloca ptr, align 8
  %9 = alloca i32, align 4
  store ptr %0, ptr %5, align 8, !tbaa !29
  store ptr %1, ptr %6, align 8, !tbaa !29
  store ptr %2, ptr %7, align 8, !tbaa !23
  call void @llvm.lifetime.start.p0(i64 8, ptr %8) #3
  %10 = load ptr, ptr %5, align 8, !tbaa !29
  %11 = load ptr, ptr %6, align 8, !tbaa !29
  %12 = call noundef ptr @_ZN7testing8internalL14ParseFlagValueEPKcS2_b(ptr noundef %10, ptr noundef %11, i1 noundef zeroext true)
  store ptr %12, ptr %8, align 8, !tbaa !29
  %13 = load ptr, ptr %8, align 8, !tbaa !29
  %14 = icmp eq ptr %13, null
  br i1 %14, label %15, label %16

15:                                               ; preds = %3
  store i1 false, ptr %4, align 1
  store i32 1, ptr %9, align 4
  br label %36

16:                                               ; preds = %3
  %17 = load ptr, ptr %8, align 8, !tbaa !29
  %18 = load i8, ptr %17, align 1, !tbaa !160
  %19 = sext i8 %18 to i32
  %20 = icmp eq i32 %19, 48
  br i1 %20, label %31, label %21

21:                                               ; preds = %16
  %22 = load ptr, ptr %8, align 8, !tbaa !29
  %23 = load i8, ptr %22, align 1, !tbaa !160
  %24 = sext i8 %23 to i32
  %25 = icmp eq i32 %24, 102
  br i1 %25, label %31, label %26

26:                                               ; preds = %21
  %27 = load ptr, ptr %8, align 8, !tbaa !29
  %28 = load i8, ptr %27, align 1, !tbaa !160
  %29 = sext i8 %28 to i32
  %30 = icmp eq i32 %29, 70
  br label %31

31:                                               ; preds = %26, %21, %16
  %32 = phi i1 [ true, %21 ], [ true, %16 ], [ %30, %26 ]
  %33 = xor i1 %32, true
  %34 = load ptr, ptr %7, align 8, !tbaa !23
  %35 = zext i1 %33 to i8
  store i8 %35, ptr %34, align 1, !tbaa !25
  store i1 true, ptr %4, align 1
  store i32 1, ptr %9, align 4
  br label %36

36:                                               ; preds = %31, %15
  call void @llvm.lifetime.end.p0(i64 8, ptr %8) #3
  %37 = load i1, ptr %4, align 1
  ret i1 %37
}