; Function Attrs: mustprogress uwtable
define internal fastcc noundef zeroext i1 @_ZN7testing8internalL9ParseFlagEPKcS2_Pb(ptr noundef captures(address) %0, ptr noundef %1, ptr noundef nonnull writeonly captures(none) %2) unnamed_addr #3 {
  %4 = tail call fastcc noundef ptr @_ZN7testing8internalL14ParseFlagValueEPKcS2_b(ptr noundef %0, ptr noundef %1, i1 noundef zeroext true)
  %5 = icmp ne ptr %4, null
  br i1 %5, label %6, label %13

6:                                                ; preds = %3
  %7 = load i8, ptr %4, align 1, !tbaa !27
  switch i8 %7, label %8 [
    i8 48, label %11
    i8 102, label %11
  ]

8:                                                ; preds = %6
  %9 = icmp ne i8 %7, 70
  %10 = zext i1 %9 to i8
  br label %11

11:                                               ; preds = %6, %6, %8
  %12 = phi i8 [ 0, %6 ], [ %10, %8 ], [ 0, %6 ]
  store i8 %12, ptr %2, align 1, !tbaa !28
  br label %13

13:                                               ; preds = %3, %11
  ret i1 %5
}